target datalayout = "e-m:e-p270:32:32-p271:32:32-p272:64:64-i64:64-i128:128-f80:128-n8:16:32:64-S128"
target triple = "x86_64-pc-linux-gnu"

%struct.ForEachState = type { ptr, i32 }
%struct.List = type { i32, i32, i32, ptr, [0 x %union.ListCell] }
%union.ListCell = type { ptr }
%struct.Node = type { i32 }
%struct.Expr = type { i32 }
%struct.Var = type { %struct.Expr, i32, i16, i32, i32, i32, ptr, i32, i32, i32, i16, i32 }

@.str.1 = private unnamed_addr constant [6 x i8] c"mcv.c\00", align 1
@.str.18 = private unnamed_addr constant [40 x i8] c"variable not found in statistics object\00", align 1
@__func__.mcv_match_expression = private unnamed_addr constant [21 x i8] c"mcv_match_expression\00", align 1
@.str.19 = private unnamed_addr constant [42 x i8] c"expression not found in statistics object\00", align 1

; Function Attrs: nounwind uwtable
define internal i32 @mcv_match_expression(ptr noundef %0, ptr noundef %1, ptr noundef %2, ptr noundef %3) #0 {
  %5 = alloca ptr, align 8
  %6 = alloca ptr, align 8
  %7 = alloca ptr, align 8
  %8 = alloca ptr, align 8
  %9 = alloca i32, align 4
  %10 = alloca ptr, align 8
  %11 = alloca ptr, align 8
  %12 = alloca %struct.ForEachState, align 8
  %13 = alloca i32, align 4
  %14 = alloca ptr, align 8
  store ptr %0, ptr %5, align 8
  store ptr %1, ptr %6, align 8
  store ptr %2, ptr %7, align 8
  store ptr %3, ptr %8, align 8
  call void @llvm.lifetime.start.p0(i64 4, ptr %9) #9
  %15 = load ptr, ptr %5, align 8
  %16 = getelementptr inbounds nuw %struct.Node, ptr %15, i32 0, i32 0
  %17 = load i32, ptr %16, align 4
  %18 = icmp eq i32 %17, 6
  br i1 %18, label %19, label %49

19:                                               ; preds = %4
  call void @llvm.lifetime.start.p0(i64 8, ptr %10) #9
  %20 = load ptr, ptr %5, align 8
  store ptr %20, ptr %10, align 8
  %21 = load ptr, ptr %8, align 8
  %22 = icmp ne ptr %21, null
  br i1 %22, label %23, label %28

23:                                               ; preds = %19
  %24 = load ptr, ptr %10, align 8
  %25 = getelementptr inbounds nuw %struct.Var, ptr %24, i32 0, i32 5
  %26 = load i32, ptr %25, align 4
  %27 = load ptr, ptr %8, align 8
  store i32 %26, ptr %27, align 4
  br label %28

28:                                               ; preds = %23, %19
  %29 = load ptr, ptr %6, align 8
  %30 = load ptr, ptr %10, align 8
  %31 = getelementptr inbounds nuw %struct.Var, ptr %30, i32 0, i32 2
  %32 = load i16, ptr %31, align 8
  %33 = sext i16 %32 to i32
  %34 = call i32 @bms_member_index(ptr noundef %29, i32 noundef %33)
  store i32 %34, ptr %9, align 4
  %35 = load i32, ptr %9, align 4
  %36 = icmp slt i32 %35, 0
  br i1 %36, label %37, label %48

37:                                               ; preds = %28
  br label %38

38:                                               ; preds = %37
  br i1 true, label %39, label %41

39:                                               ; preds = %38
  %40 = call zeroext i1 @errstart_cold(i32 noundef 21, ptr noundef null) #10
  br i1 %40, label %43, label %45

41:                                               ; preds = %38
  %42 = call zeroext i1 @errstart(i32 noundef 21, ptr noundef null)
  br i1 %42, label %43, label %45

43:                                               ; preds = %41, %39
  %44 = call i32 (ptr, ...) @errmsg_internal(ptr noundef @.str.18)
  call void @errfinish(ptr noundef @.str.1, i32 noundef 1550, ptr noundef @__func__.mcv_match_expression)
  br label %45

45:                                               ; preds = %43, %41, %39
  unreachable

46:                                               ; No predecessors!
  br label %47

47:                                               ; preds = %46
  br label %48

48:                                               ; preds = %47, %28
  call void @llvm.lifetime.end.p0(i64 8, ptr %10) #9
  br label %122

49:                                               ; preds = %4
  call void @llvm.lifetime.start.p0(i64 8, ptr %11) #9
  %50 = load ptr, ptr %8, align 8
  %51 = icmp ne ptr %50, null
  br i1 %51, label %52, label %56

52:                                               ; preds = %49
  %53 = load ptr, ptr %5, align 8
  %54 = call i32 @exprCollation(ptr noundef %53)
  %55 = load ptr, ptr %8, align 8
  store i32 %54, ptr %55, align 4
  br label %56

56:                                               ; preds = %52, %49
  %57 = load ptr, ptr %6, align 8
  %58 = call i32 @bms_num_members(ptr noundef %57)
  store i32 %58, ptr %9, align 4
  call void @llvm.lifetime.start.p0(i64 16, ptr %12) #9
  %59 = getelementptr inbounds nuw %struct.ForEachState, ptr %12, i32 0, i32 0
  %60 = load ptr, ptr %7, align 8
  store ptr %60, ptr %59, align 8
  %61 = getelementptr inbounds nuw %struct.ForEachState, ptr %12, i32 0, i32 1
  store i32 0, ptr %61, align 8
  %62 = getelementptr i8, ptr %12, i64 12
  call void @llvm.memset.p0.i64(ptr align 4 %62, i8 0, i64 4, i1 false)
  br label %63

63:                                               ; preds = %102, %56
  %64 = getelementptr inbounds nuw %struct.ForEachState, ptr %12, i32 0, i32 0
  %65 = load ptr, ptr %64, align 8
  %66 = icmp ne ptr %65, null
  br i1 %66, label %67, label %84

67:                                               ; preds = %63
  %68 = getelementptr inbounds nuw %struct.ForEachState, ptr %12, i32 0, i32 1
  %69 = load i32, ptr %68, align 8
  %70 = getelementptr inbounds nuw %struct.ForEachState, ptr %12, i32 0, i32 0
  %71 = load ptr, ptr %70, align 8
  %72 = getelementptr inbounds nuw %struct.List, ptr %71, i32 0, i32 1
  %73 = load i32, ptr %72, align 4
  %74 = icmp slt i32 %69, %73
  br i1 %74, label %75, label %84

75:                                               ; preds = %67
  %76 = getelementptr inbounds nuw %struct.ForEachState, ptr %12, i32 0, i32 0
  %77 = load ptr, ptr %76, align 8
  %78 = getelementptr inbounds nuw %struct.List, ptr %77, i32 0, i32 3
  %79 = load ptr, ptr %78, align 8
  %80 = getelementptr inbounds nuw %struct.ForEachState, ptr %12, i32 0, i32 1
  %81 = load i32, ptr %80, align 8
  %82 = sext i32 %81 to i64
  %83 = getelementptr inbounds %union.ListCell, ptr %79, i64 %82
  store ptr %83, ptr %11, align 8
  br label %85

84:                                               ; preds = %67, %63
  store ptr null, ptr %11, align 8
  br label %85

85:                                               ; preds = %84, %75
  %86 = phi i32 [ 1, %75 ], [ 0, %84 ]
  %87 = icmp ne i32 %86, 0
  br i1 %87, label %89, label %88

88:                                               ; preds = %85
  store i32 4, ptr %13, align 4
  br label %106

89:                                               ; preds = %85
  call void @llvm.lifetime.start.p0(i64 8, ptr %14) #9
  %90 = load ptr, ptr %11, align 8
  %91 = load ptr, ptr %90, align 8
  store ptr %91, ptr %14, align 8
  %92 = load ptr, ptr %5, align 8
  %93 = load ptr, ptr %14, align 8
  %94 = call zeroext i1 @equal(ptr noundef %92, ptr noundef %93)
  br i1 %94, label %95, label %96

95:                                               ; preds = %89
  store i32 4, ptr %13, align 4
  br label %99

96:                                               ; preds = %89
  %97 = load i32, ptr %9, align 4
  %98 = add i32 %97, 1
  store i32 %98, ptr %9, align 4
  store i32 0, ptr %13, align 4
  br label %99

99:                                               ; preds = %96, %95
  call void @llvm.lifetime.end.p0(i64 8, ptr %14) #9
  %100 = load i32, ptr %13, align 4
  switch i32 %100, label %106 [
    i32 0, label %101
  ]

101:                                              ; preds = %99
  br label %102

102:                                              ; preds = %101
  %103 = getelementptr inbounds nuw %struct.ForEachState, ptr %12, i32 0, i32 1
  %104 = load i32, ptr %103, align 8
  %105 = add i32 %104, 1
  store i32 %105, ptr %103, align 8
  br label %63, !llvm.loop !49

106:                                              ; preds = %99, %88
  call void @llvm.lifetime.end.p0(i64 16, ptr %12) #9
  br label %107

107:                                              ; preds = %106
  %108 = load ptr, ptr %11, align 8
  %109 = icmp eq ptr %108, null
  br i1 %109, label %110, label %121

110:                                              ; preds = %107
  br label %111

111:                                              ; preds = %110
  br i1 true, label %112, label %114

112:                                              ; preds = %111
  %113 = call zeroext i1 @errstart_cold(i32 noundef 21, ptr noundef null) #10
  br i1 %113, label %116, label %118

114:                                              ; preds = %111
  %115 = call zeroext i1 @errstart(i32 noundef 21, ptr noundef null)
  br i1 %115, label %116, label %118

116:                                              ; preds = %114, %112
  %117 = call i32 (ptr, ...) @errmsg_internal(ptr noundef @.str.19)
  call void @errfinish(ptr noundef @.str.1, i32 noundef 1573, ptr noundef @__func__.mcv_match_expression)
  br label %118

118:                                              ; preds = %116, %114, %112
  unreachable

119:                                              ; No predecessors!
  br label %120

120:                                              ; preds = %119
  br label %121

121:                                              ; preds = %120, %107
  call void @llvm.lifetime.end.p0(i64 8, ptr %11) #9
  br label %122

122:                                              ; preds = %121, %48
  %123 = load i32, ptr %9, align 4
  store i32 1, ptr %13, align 4
  call void @llvm.lifetime.end.p0(i64 4, ptr %9) #9
  ret i32 %123
}