; Function Attrs: nounwind uwtable
define internal fastcc i32 @mcv_match_expression(ptr noundef %0, ptr noundef %1, ptr noundef readonly captures(address_is_null) %2, ptr noundef writeonly captures(address_is_null) %3) unnamed_addr #0 {
  %5 = load i32, ptr %0, align 4
  %6 = icmp eq i32 %5, 6
  %.not31 = icmp eq ptr %3, null
  br i1 %6, label %7, label %20

7:                                                ; preds = %4
  br i1 %.not31, label %11, label %8

8:                                                ; preds = %7
  %9 = getelementptr inbounds nuw i8, ptr %0, i64 20
  %10 = load i32, ptr %9, align 4
  store i32 %10, ptr %3, align 4
  br label %11

11:                                               ; preds = %8, %7
  %12 = getelementptr inbounds nuw i8, ptr %0, i64 8
  %13 = load i16, ptr %12, align 8
  %14 = sext i16 %13 to i32
  %15 = tail call i32 @bms_member_index(ptr noundef %1, i32 noundef %14) #13
  %16 = icmp slt i32 %15, 0
  br i1 %16, label %17, label %.loopexit

17:                                               ; preds = %11
  %18 = tail call zeroext i1 @errstart_cold(i32 noundef 21, ptr noundef null) #14
  tail call void @llvm.assume(i1 %18)
  %19 = tail call i32 (ptr, ...) @errmsg_internal(ptr noundef nonnull @.str.18) #13
  tail call void @errfinish(ptr noundef nonnull @.str.1, i32 noundef 1550, ptr noundef nonnull @__func__.mcv_match_expression) #13
  unreachable

20:                                               ; preds = %4
  br i1 %.not31, label %23, label %21

21:                                               ; preds = %20
  %22 = tail call i32 @exprCollation(ptr noundef nonnull %0) #13
  store i32 %22, ptr %3, align 4
  br label %23

23:                                               ; preds = %21, %20
  %24 = tail call i32 @bms_num_members(ptr noundef %1) #13
  %.not29 = icmp eq ptr %2, null
  br i1 %.not29, label %._crit_edge, label %.lr.ph

.lr.ph:                                           ; preds = %23
  %25 = getelementptr inbounds nuw i8, ptr %2, i64 4
  %26 = getelementptr inbounds nuw i8, ptr %2, i64 16
  %27 = load i32, ptr %25, align 4
  %28 = icmp sgt i32 %27, 0
  br i1 %28, label %.lr.ph44, label %._crit_edge

.lr.ph44:                                         ; preds = %.lr.ph, %33
  %indvars.iv = phi i64 [ %indvars.iv.next, %33 ], [ 0, %.lr.ph ]
  %.14042 = phi i32 [ %34, %33 ], [ %24, %.lr.ph ]
  %29 = load ptr, ptr %26, align 8
  %30 = getelementptr inbounds nuw %union.ListCell, ptr %29, i64 %indvars.iv
  %31 = load ptr, ptr %30, align 8
  %32 = tail call zeroext i1 @equal(ptr noundef nonnull %0, ptr noundef %31) #13
  br i1 %32, label %.loopexit, label %33

33:                                               ; preds = %.lr.ph44
  %34 = add i32 %.14042, 1
  %indvars.iv.next = add nuw nsw i64 %indvars.iv, 1
  %35 = load i32, ptr %25, align 4
  %36 = sext i32 %35 to i64
  %37 = icmp slt i64 %indvars.iv.next, %36
  br i1 %37, label %.lr.ph44, label %._crit_edge

._crit_edge:                                      ; preds = %33, %.lr.ph, %23
  %38 = tail call zeroext i1 @errstart_cold(i32 noundef 21, ptr noundef null) #14
  tail call void @llvm.assume(i1 %38)
  %39 = tail call i32 (ptr, ...) @errmsg_internal(ptr noundef nonnull @.str.19) #13
  tail call void @errfinish(ptr noundef nonnull @.str.1, i32 noundef 1573, ptr noundef nonnull @__func__.mcv_match_expression) #13
  unreachable

.loopexit:                                        ; preds = %.lr.ph44, %11
  %.0 = phi i32 [ %15, %11 ], [ %.14042, %.lr.ph44 ]
  ret i32 %.0
}